target datalayout = "e-m:e-p270:32:32-p271:32:32-p272:64:64-i64:64-i128:128-f80:128-n8:16:32:64-S128"
target triple = "x86_64-pc-linux-gnu"

%struct.GlobalOptions = type { i32, i32 }
%"class.std::__cxx11::basic_string" = type { %"struct.std::__cxx11::basic_string<char>::_Alloc_hider", i64, %union.anon }
%"struct.std::__cxx11::basic_string<char>::_Alloc_hider" = type { ptr }
%union.anon = type { i64, [8 x i8] }
%"class.std::allocator" = type { i8 }
%"struct.Luau::CompileOptions" = type { i32, i32, i32, i32, ptr, ptr, ptr, ptr, ptr }
%"struct.Luau::ParseOptions" = type { i8, i8 }

@globalOptions = dso_local global %struct.GlobalOptions { i32 1, i32 1 }, align 4
@.str.54 = private unnamed_addr constant [7 x i8] c"=stdin\00", align 1
@.str.55 = private unnamed_addr constant [26 x i8] c"too many results to print\00", align 1
@.str.56 = private unnamed_addr constant [13 x i8] c"_PRETTYPRINT\00", align 1
@.str.57 = private unnamed_addr constant [6 x i8] c"print\00", align 1
@.str.58 = private unnamed_addr constant [28 x i8] c"thread yielded unexpectedly\00", align 1
@.str.59 = private unnamed_addr constant [19 x i8] c"\0Astack backtrace:\0A\00", align 1

; Function Attrs: mustprogress uwtable
define internal void @_ZL5coptsv(ptr dead_on_unwind noalias writable sret(%"struct.Luau::CompileOptions") align 8 %0) #1 {
  %2 = getelementptr inbounds %"struct.Luau::CompileOptions", ptr %0, i32 0, i32 0
  store i32 1, ptr %2, align 8
  %3 = getelementptr inbounds %"struct.Luau::CompileOptions", ptr %0, i32 0, i32 1
  store i32 1, ptr %3, align 4
  %4 = getelementptr inbounds %"struct.Luau::CompileOptions", ptr %0, i32 0, i32 2
  store i32 0, ptr %4, align 8
  %5 = getelementptr inbounds %"struct.Luau::CompileOptions", ptr %0, i32 0, i32 3
  store i32 0, ptr %5, align 4
  %6 = getelementptr inbounds %"struct.Luau::CompileOptions", ptr %0, i32 0, i32 4
  store ptr null, ptr %6, align 8
  %7 = getelementptr inbounds %"struct.Luau::CompileOptions", ptr %0, i32 0, i32 5
  store ptr null, ptr %7, align 8
  %8 = getelementptr inbounds %"struct.Luau::CompileOptions", ptr %0, i32 0, i32 6
  store ptr null, ptr %8, align 8
  %9 = getelementptr inbounds %"struct.Luau::CompileOptions", ptr %0, i32 0, i32 7
  store ptr null, ptr %9, align 8
  %10 = getelementptr inbounds %"struct.Luau::CompileOptions", ptr %0, i32 0, i32 8
  store ptr null, ptr %10, align 8
  %11 = load i32, ptr @globalOptions, align 4
  %12 = getelementptr inbounds %"struct.Luau::CompileOptions", ptr %0, i32 0, i32 0
  store i32 %11, ptr %12, align 8
  %13 = load i32, ptr getelementptr inbounds (%struct.GlobalOptions, ptr @globalOptions, i32 0, i32 1), align 4
  %14 = getelementptr inbounds %"struct.Luau::CompileOptions", ptr %0, i32 0, i32 1
  store i32 %13, ptr %14, align 4
  %15 = getelementptr inbounds %"struct.Luau::CompileOptions", ptr %0, i32 0, i32 2
  store i32 1, ptr %15, align 8
  %16 = call noundef zeroext i1 @_Z14coverageActivev()
  %17 = select i1 %16, i32 2, i32 0
  %18 = getelementptr inbounds %"struct.Luau::CompileOptions", ptr %0, i32 0, i32 3
  store i32 %17, ptr %18, align 4
  ret void
}

; Function Attrs: mustprogress uwtable
define dso_local void @_Z7runCodeP9lua_StateRKNSt7__cxx1112basic_stringIcSt11char_traitsIcESaIcEEE(ptr dead_on_unwind noalias writable sret(%"class.std::__cxx11::basic_string") align 8 %0, ptr noundef %1, ptr noundef nonnull align 8 dereferenceable(32) %2) #1 personality ptr @__gxx_personality_v0 {
  %4 = alloca ptr, align 8
  %5 = alloca ptr, align 8
  %6 = alloca ptr, align 8
  %7 = alloca %"class.std::__cxx11::basic_string", align 8
  %8 = alloca %"struct.Luau::CompileOptions", align 8
  %9 = alloca %"struct.Luau::ParseOptions", align 1
  %10 = alloca ptr, align 8
  %11 = alloca i32, align 4
  %12 = alloca i64, align 8
  %13 = alloca ptr, align 8
  %14 = alloca i1, align 1
  %15 = alloca %"class.std::allocator", align 1
  %16 = alloca i32, align 4
  %17 = alloca ptr, align 8
  %18 = alloca i32, align 4
  %19 = alloca i32, align 4
  %20 = alloca i1, align 1
  %21 = alloca ptr, align 8
  store ptr %0, ptr %4, align 8
  store ptr %1, ptr %5, align 8
  store ptr %2, ptr %6, align 8
  %22 = load ptr, ptr %5, align 8
  %23 = call noundef i32 @_Z14lua_checkstackP9lua_Statei(ptr noundef %22, i32 noundef 20)
  %24 = load ptr, ptr %6, align 8
  call void @_ZL5coptsv(ptr dead_on_unwind writable sret(%"struct.Luau::CompileOptions") align 8 %8)
  %25 = getelementptr inbounds %"struct.Luau::ParseOptions", ptr %9, i32 0, i32 0
  store i8 0, ptr %25, align 1
  %26 = getelementptr inbounds %"struct.Luau::ParseOptions", ptr %9, i32 0, i32 1
  store i8 0, ptr %26, align 1
  call void @_ZN4Luau7compileERKNSt7__cxx1112basic_stringIcSt11char_traitsIcESaIcEEERKNS_14CompileOptionsERKNS_12ParseOptionsEPNS_15BytecodeEncoderE(ptr dead_on_unwind writable sret(%"class.std::__cxx11::basic_string") align 8 %7, ptr noundef nonnull align 8 dereferenceable(32) %24, ptr noundef nonnull align 8 dereferenceable(56) %8, ptr noundef nonnull align 1 dereferenceable(2) %9, ptr noundef null)
  %27 = load ptr, ptr %5, align 8
  %28 = call noundef ptr @_ZNSt7__cxx1112basic_stringIcSt11char_traitsIcESaIcEE4dataEv(ptr noundef nonnull align 8 dereferenceable(32) %7) #11
  %29 = call noundef i64 @_ZNKSt7__cxx1112basic_stringIcSt11char_traitsIcESaIcEE4sizeEv(ptr noundef nonnull align 8 dereferenceable(32) %7) #11
  %30 = invoke noundef i32 @_Z9luau_loadP9lua_StatePKcS2_mi(ptr noundef %27, ptr noundef @.str.54, ptr noundef %28, i64 noundef %29, i32 noundef 0)
          to label %31 unwind label %43

31:                                               ; preds = %3
  %32 = icmp ne i32 %30, 0
  br i1 %32, label %33, label %57

33:                                               ; preds = %31
  %34 = load ptr, ptr %5, align 8
  %35 = invoke noundef ptr @_Z13lua_tolstringP9lua_StateiPm(ptr noundef %34, i32 noundef -1, ptr noundef %12)
          to label %36 unwind label %43

36:                                               ; preds = %33
  store ptr %35, ptr %13, align 8
  store i1 false, ptr %14, align 1
  %37 = load ptr, ptr %13, align 8
  %38 = load i64, ptr %12, align 8
  call void @_ZNSaIcEC1Ev(ptr noundef nonnull align 1 dereferenceable(1) %15) #11
  invoke void @_ZNSt7__cxx1112basic_stringIcSt11char_traitsIcESaIcEEC1EPKcmRKS3_(ptr noundef nonnull align 8 dereferenceable(32) %0, ptr noundef %37, i64 noundef %38, ptr noundef nonnull align 1 dereferenceable(1) %15)
          to label %39 unwind label %47

39:                                               ; preds = %36
  call void @_ZNSaIcED1Ev(ptr noundef nonnull align 1 dereferenceable(1) %15) #11
  %40 = load ptr, ptr %5, align 8
  invoke void @_Z10lua_settopP9lua_Statei(ptr noundef %40, i32 noundef -2)
          to label %41 unwind label %51

41:                                               ; preds = %39
  store i1 true, ptr %14, align 1
  store i32 1, ptr %16, align 4
  %42 = load i1, ptr %14, align 1
  br i1 %42, label %56, label %55

43:                                               ; preds = %102, %97, %95, %91, %89, %84, %81, %79, %73, %67, %64, %62, %60, %57, %33, %3
  %44 = landingpad { ptr, i32 }
          cleanup
  %45 = extractvalue { ptr, i32 } %44, 0
  store ptr %45, ptr %10, align 8
  %46 = extractvalue { ptr, i32 } %44, 1
  store i32 %46, ptr %11, align 4
  br label %140

47:                                               ; preds = %36
  %48 = landingpad { ptr, i32 }
          cleanup
  %49 = extractvalue { ptr, i32 } %48, 0
  store ptr %49, ptr %10, align 8
  %50 = extractvalue { ptr, i32 } %48, 1
  store i32 %50, ptr %11, align 4
  call void @_ZNSaIcED1Ev(ptr noundef nonnull align 1 dereferenceable(1) %15) #11
  br label %140

51:                                               ; preds = %39
  %52 = landingpad { ptr, i32 }
          cleanup
  %53 = extractvalue { ptr, i32 } %52, 0
  store ptr %53, ptr %10, align 8
  %54 = extractvalue { ptr, i32 } %52, 1
  store i32 %54, ptr %11, align 4
  call void @_ZNSt7__cxx1112basic_stringIcSt11char_traitsIcESaIcEED1Ev(ptr noundef nonnull align 8 dereferenceable(32) %0) #11
  br label %140

55:                                               ; preds = %41
  call void @_ZNSt7__cxx1112basic_stringIcSt11char_traitsIcESaIcEED1Ev(ptr noundef nonnull align 8 dereferenceable(32) %0) #11
  br label %56

56:                                               ; preds = %55, %41
  br label %139

57:                                               ; preds = %31
  %58 = load ptr, ptr %5, align 8
  %59 = invoke noundef ptr @_Z13lua_newthreadP9lua_State(ptr noundef %58)
          to label %60 unwind label %43

60:                                               ; preds = %57
  store ptr %59, ptr %17, align 8
  %61 = load ptr, ptr %5, align 8
  invoke void @_Z13lua_pushvalueP9lua_Statei(ptr noundef %61, i32 noundef -2)
          to label %62 unwind label %43

62:                                               ; preds = %60
  %63 = load ptr, ptr %5, align 8
  invoke void @_Z10lua_removeP9lua_Statei(ptr noundef %63, i32 noundef -3)
          to label %64 unwind label %43

64:                                               ; preds = %62
  %65 = load ptr, ptr %5, align 8
  %66 = load ptr, ptr %17, align 8
  invoke void @_Z9lua_xmoveP9lua_StateS0_i(ptr noundef %65, ptr noundef %66, i32 noundef 1)
          to label %67 unwind label %43

67:                                               ; preds = %64
  %68 = load ptr, ptr %17, align 8
  %69 = invoke noundef i32 @_Z10lua_resumeP9lua_StateS0_i(ptr noundef %68, ptr noundef null, i32 noundef 0)
          to label %70 unwind label %43

70:                                               ; preds = %67
  store i32 %69, ptr %18, align 4
  %71 = load i32, ptr %18, align 4
  %72 = icmp eq i32 %71, 0
  br i1 %72, label %73, label %105

73:                                               ; preds = %70
  %74 = load ptr, ptr %17, align 8
  %75 = invoke noundef i32 @_Z10lua_gettopP9lua_State(ptr noundef %74)
          to label %76 unwind label %43

76:                                               ; preds = %73
  store i32 %75, ptr %19, align 4
  %77 = load i32, ptr %19, align 4
  %78 = icmp ne i32 %77, 0
  br i1 %78, label %79, label %102

79:                                               ; preds = %76
  %80 = load ptr, ptr %17, align 8
  invoke void @_Z15luaL_checkstackP9lua_StateiPKc(ptr noundef %80, i32 noundef 20, ptr noundef @.str.55)
          to label %81 unwind label %43

81:                                               ; preds = %79
  %82 = load ptr, ptr %17, align 8
  %83 = invoke noundef i32 @_Z12lua_getfieldP9lua_StateiPKc(ptr noundef %82, i32 noundef -10002, ptr noundef @.str.56)
          to label %84 unwind label %43

84:                                               ; preds = %81
  %85 = load ptr, ptr %17, align 8
  %86 = invoke noundef i32 @_Z8lua_typeP9lua_Statei(ptr noundef %85, i32 noundef -1)
          to label %87 unwind label %43

87:                                               ; preds = %84
  %88 = icmp eq i32 %86, 0
  br i1 %88, label %89, label %95

89:                                               ; preds = %87
  %90 = load ptr, ptr %17, align 8
  invoke void @_Z10lua_settopP9lua_Statei(ptr noundef %90, i32 noundef -2)
          to label %91 unwind label %43

91:                                               ; preds = %89
  %92 = load ptr, ptr %17, align 8
  %93 = invoke noundef i32 @_Z12lua_getfieldP9lua_StateiPKc(ptr noundef %92, i32 noundef -10002, ptr noundef @.str.57)
          to label %94 unwind label %43

94:                                               ; preds = %91
  br label %95

95:                                               ; preds = %94, %87
  %96 = load ptr, ptr %17, align 8
  invoke void @_Z10lua_insertP9lua_Statei(ptr noundef %96, i32 noundef 1)
          to label %97 unwind label %43

97:                                               ; preds = %95
  %98 = load ptr, ptr %17, align 8
  %99 = load i32, ptr %19, align 4
  %100 = invoke noundef i32 @_Z9lua_pcallP9lua_Stateiii(ptr noundef %98, i32 noundef %99, i32 noundef 0, i32 noundef 0)
          to label %101 unwind label %43

101:                                              ; preds = %97
  br label %102

102:                                              ; preds = %101, %76
  %103 = load ptr, ptr %5, align 8
  invoke void @_Z10lua_settopP9lua_Statei(ptr noundef %103, i32 noundef -2)
          to label %104 unwind label %43

104:                                              ; preds = %102
  call void @_ZNSt7__cxx1112basic_stringIcSt11char_traitsIcESaIcEEC1Ev(ptr noundef nonnull align 8 dereferenceable(32) %0) #11
  store i32 1, ptr %16, align 4
  br label %139

105:                                              ; preds = %70
  store i1 false, ptr %20, align 1
  call void @_ZNSt7__cxx1112basic_stringIcSt11char_traitsIcESaIcEEC1Ev(ptr noundef nonnull align 8 dereferenceable(32) %0) #11
  %106 = load i32, ptr %18, align 4
  %107 = icmp eq i32 %106, 1
  br i1 %107, label %108, label %115

108:                                              ; preds = %105
  %109 = invoke noundef nonnull align 8 dereferenceable(32) ptr @_ZNSt7__cxx1112basic_stringIcSt11char_traitsIcESaIcEEaSEPKc(ptr noundef nonnull align 8 dereferenceable(32) %0, ptr noundef @.str.58)
          to label %110 unwind label %111

110:                                              ; preds = %108
  br label %126

111:                                              ; preds = %133, %131, %128, %126, %121, %115, %108
  %112 = landingpad { ptr, i32 }
          cleanup
  %113 = extractvalue { ptr, i32 } %112, 0
  store ptr %113, ptr %10, align 8
  %114 = extractvalue { ptr, i32 } %112, 1
  store i32 %114, ptr %11, align 4
  call void @_ZNSt7__cxx1112basic_stringIcSt11char_traitsIcESaIcEED1Ev(ptr noundef nonnull align 8 dereferenceable(32) %0) #11
  br label %140

115:                                              ; preds = %105
  %116 = load ptr, ptr %17, align 8
  %117 = invoke noundef ptr @_Z13lua_tolstringP9lua_StateiPm(ptr noundef %116, i32 noundef -1, ptr noundef null)
          to label %118 unwind label %111

118:                                              ; preds = %115
  store ptr %117, ptr %21, align 8
  %119 = load ptr, ptr %21, align 8
  %120 = icmp ne ptr %119, null
  br i1 %120, label %121, label %125

121:                                              ; preds = %118
  %122 = load ptr, ptr %21, align 8
  %123 = invoke noundef nonnull align 8 dereferenceable(32) ptr @_ZNSt7__cxx1112basic_stringIcSt11char_traitsIcESaIcEEaSEPKc(ptr noundef nonnull align 8 dereferenceable(32) %0, ptr noundef %122)
          to label %124 unwind label %111

124:                                              ; preds = %121
  br label %125

125:                                              ; preds = %124, %118
  br label %126

126:                                              ; preds = %125, %110
  %127 = invoke noundef nonnull align 8 dereferenceable(32) ptr @_ZNSt7__cxx1112basic_stringIcSt11char_traitsIcESaIcEEpLEPKc(ptr noundef nonnull align 8 dereferenceable(32) %0, ptr noundef @.str.59)
          to label %128 unwind label %111

128:                                              ; preds = %126
  %129 = load ptr, ptr %17, align 8
  %130 = invoke noundef ptr @_Z14lua_debugtraceP9lua_State(ptr noundef %129)
          to label %131 unwind label %111

131:                                              ; preds = %128
  %132 = invoke noundef nonnull align 8 dereferenceable(32) ptr @_ZNSt7__cxx1112basic_stringIcSt11char_traitsIcESaIcEEpLEPKc(ptr noundef nonnull align 8 dereferenceable(32) %0, ptr noundef %130)
          to label %133 unwind label %111

133:                                              ; preds = %131
  %134 = load ptr, ptr %5, align 8
  invoke void @_Z10lua_settopP9lua_Statei(ptr noundef %134, i32 noundef -2)
          to label %135 unwind label %111

135:                                              ; preds = %133
  store i1 true, ptr %20, align 1
  store i32 1, ptr %16, align 4
  %136 = load i1, ptr %20, align 1
  br i1 %136, label %138, label %137

137:                                              ; preds = %135
  call void @_ZNSt7__cxx1112basic_stringIcSt11char_traitsIcESaIcEED1Ev(ptr noundef nonnull align 8 dereferenceable(32) %0) #11
  br label %138

138:                                              ; preds = %137, %135
  br label %139

139:                                              ; preds = %138, %104, %56
  call void @_ZNSt7__cxx1112basic_stringIcSt11char_traitsIcESaIcEED1Ev(ptr noundef nonnull align 8 dereferenceable(32) %7) #11
  ret void

140:                                              ; preds = %111, %51, %47, %43
  call void @_ZNSt7__cxx1112basic_stringIcSt11char_traitsIcESaIcEED1Ev(ptr noundef nonnull align 8 dereferenceable(32) %7) #11
  br label %141

141:                                              ; preds = %140
  %142 = load ptr, ptr %10, align 8
  %143 = load i32, ptr %11, align 4
  %144 = insertvalue { ptr, i32 } poison, ptr %142, 0
  %145 = insertvalue { ptr, i32 } %144, i32 %143, 1
  resume { ptr, i32 } %145
}