; Function Attrs: mustprogress uwtable
define dso_local void @_Z7runCodeP9lua_StateRKNSt7__cxx1112basic_stringIcSt11char_traitsIcESaIcEEE(ptr dead_on_unwind noalias writable sret(%"class.std::__cxx11::basic_string") align 8 %0, ptr noundef %1, ptr noundef nonnull align 8 dereferenceable(32) %2) local_unnamed_addr #1 personality ptr @__gxx_personality_v0 {
  %4 = alloca %"class.std::__cxx11::basic_string", align 8
  %5 = alloca %"struct.Luau::CompileOptions", align 8
  %6 = alloca %"struct.Luau::ParseOptions", align 1
  %7 = alloca i64, align 8
  %8 = alloca %"class.std::allocator", align 1
  %9 = tail call noundef i32 @_Z14lua_checkstackP9lua_Statei(ptr noundef %1, i32 noundef 20)
  tail call void @llvm.experimental.noalias.scope.decl(metadata !14)
  %10 = getelementptr inbounds i8, ptr %5, i64 8
  %11 = getelementptr inbounds i8, ptr %5, i64 12
  %12 = getelementptr inbounds i8, ptr %5, i64 16
  call void @llvm.memset.p0.i64(ptr noundef nonnull align 8 dereferenceable(40) %12, i8 0, i64 40, i1 false), !alias.scope !14
  %13 = load <2 x i32>, ptr @globalOptions, align 8, !noalias !14
  store <2 x i32> %13, ptr %5, align 8, !alias.scope !14
  store i32 1, ptr %10, align 8, !alias.scope !14
  %14 = tail call noundef zeroext i1 @_Z14coverageActivev(), !noalias !14
  %15 = select i1 %14, i32 2, i32 0
  store i32 %15, ptr %11, align 4, !alias.scope !14
  store i8 0, ptr %6, align 1
  %16 = getelementptr inbounds i8, ptr %6, i64 1
  store i8 0, ptr %16, align 1
  call void @_ZN4Luau7compileERKNSt7__cxx1112basic_stringIcSt11char_traitsIcESaIcEEERKNS_14CompileOptionsERKNS_12ParseOptionsEPNS_15BytecodeEncoderE(ptr dead_on_unwind nonnull writable sret(%"class.std::__cxx11::basic_string") align 8 %4, ptr noundef nonnull align 8 dereferenceable(32) %2, ptr noundef nonnull align 8 dereferenceable(56) %5, ptr noundef nonnull align 1 dereferenceable(2) %6, ptr noundef null)
  %17 = call noundef ptr @_ZNSt7__cxx1112basic_stringIcSt11char_traitsIcESaIcEE4dataEv(ptr noundef nonnull align 8 dereferenceable(32) %4) #22
  %18 = call noundef i64 @_ZNKSt7__cxx1112basic_stringIcSt11char_traitsIcESaIcEE4sizeEv(ptr noundef nonnull align 8 dereferenceable(32) %4) #22
  %19 = invoke noundef i32 @_Z9luau_loadP9lua_StatePKcS2_mi(ptr noundef %1, ptr noundef nonnull @.str.54, ptr noundef %17, i64 noundef %18, i32 noundef 0)
          to label %20 unwind label %26

20:                                               ; preds = %3
  %.not = icmp eq i32 %19, 0
  br i1 %.not, label %32, label %21

21:                                               ; preds = %20
  %22 = invoke noundef ptr @_Z13lua_tolstringP9lua_StateiPm(ptr noundef %1, i32 noundef -1, ptr noundef nonnull %7)
          to label %23 unwind label %26

23:                                               ; preds = %21
  %24 = load i64, ptr %7, align 8
  call void @_ZNSaIcEC1Ev(ptr noundef nonnull align 1 dereferenceable(1) %8) #22
  invoke void @_ZNSt7__cxx1112basic_stringIcSt11char_traitsIcESaIcEEC1EPKcmRKS3_(ptr noundef nonnull align 8 dereferenceable(32) %0, ptr noundef %22, i64 noundef %24, ptr noundef nonnull align 1 dereferenceable(1) %8)
          to label %25 unwind label %28

25:                                               ; preds = %23
  call void @_ZNSaIcED1Ev(ptr noundef nonnull align 1 dereferenceable(1) %8) #22
  invoke void @_Z10lua_settopP9lua_Statei(ptr noundef %1, i32 noundef -2)
          to label %75 unwind label %30

26:                                               ; preds = %57, %55, %54, %52, %51, %47, %45, %44, %41, %37, %36, %35, %34, %32, %21, %3
  %27 = landingpad { ptr, i32 }
          cleanup
  br label %76

28:                                               ; preds = %23
  %29 = landingpad { ptr, i32 }
          cleanup
  call void @_ZNSaIcED1Ev(ptr noundef nonnull align 1 dereferenceable(1) %8) #22
  br label %76

30:                                               ; preds = %25
  %31 = landingpad { ptr, i32 }
          cleanup
  call void @_ZNSt7__cxx1112basic_stringIcSt11char_traitsIcESaIcEED1Ev(ptr noundef nonnull align 8 dereferenceable(32) %0) #22
  br label %76

32:                                               ; preds = %20
  %33 = invoke noundef ptr @_Z13lua_newthreadP9lua_State(ptr noundef %1)
          to label %34 unwind label %26

34:                                               ; preds = %32
  invoke void @_Z13lua_pushvalueP9lua_Statei(ptr noundef %1, i32 noundef -2)
          to label %35 unwind label %26

35:                                               ; preds = %34
  invoke void @_Z10lua_removeP9lua_Statei(ptr noundef %1, i32 noundef -3)
          to label %36 unwind label %26

36:                                               ; preds = %35
  invoke void @_Z9lua_xmoveP9lua_StateS0_i(ptr noundef %1, ptr noundef %33, i32 noundef 1)
          to label %37 unwind label %26

37:                                               ; preds = %36
  %38 = invoke noundef i32 @_Z10lua_resumeP9lua_StateS0_i(ptr noundef %33, ptr noundef null, i32 noundef 0)
          to label %39 unwind label %26

39:                                               ; preds = %37
  %40 = icmp eq i32 %38, 0
  br i1 %40, label %41, label %59

41:                                               ; preds = %39
  %42 = invoke noundef i32 @_Z10lua_gettopP9lua_State(ptr noundef %33)
          to label %43 unwind label %26

43:                                               ; preds = %41
  %.not38 = icmp eq i32 %42, 0
  br i1 %.not38, label %57, label %44

44:                                               ; preds = %43
  invoke void @_Z15luaL_checkstackP9lua_StateiPKc(ptr noundef %33, i32 noundef 20, ptr noundef nonnull @.str.55)
          to label %45 unwind label %26

45:                                               ; preds = %44
  %46 = invoke noundef i32 @_Z12lua_getfieldP9lua_StateiPKc(ptr noundef %33, i32 noundef -10002, ptr noundef nonnull @.str.56)
          to label %47 unwind label %26

47:                                               ; preds = %45
  %48 = invoke noundef i32 @_Z8lua_typeP9lua_Statei(ptr noundef %33, i32 noundef -1)
          to label %49 unwind label %26

49:                                               ; preds = %47
  %50 = icmp eq i32 %48, 0
  br i1 %50, label %51, label %54

51:                                               ; preds = %49
  invoke void @_Z10lua_settopP9lua_Statei(ptr noundef %33, i32 noundef -2)
          to label %52 unwind label %26

52:                                               ; preds = %51
  %53 = invoke noundef i32 @_Z12lua_getfieldP9lua_StateiPKc(ptr noundef %33, i32 noundef -10002, ptr noundef nonnull @.str.57)
          to label %54 unwind label %26

54:                                               ; preds = %52, %49
  invoke void @_Z10lua_insertP9lua_Statei(ptr noundef %33, i32 noundef 1)
          to label %55 unwind label %26

55:                                               ; preds = %54
  %56 = invoke noundef i32 @_Z9lua_pcallP9lua_Stateiii(ptr noundef %33, i32 noundef %42, i32 noundef 0, i32 noundef 0)
          to label %57 unwind label %26

57:                                               ; preds = %55, %43
  invoke void @_Z10lua_settopP9lua_Statei(ptr noundef %1, i32 noundef -2)
          to label %58 unwind label %26

58:                                               ; preds = %57
  call void @_ZNSt7__cxx1112basic_stringIcSt11char_traitsIcESaIcEEC1Ev(ptr noundef nonnull align 8 dereferenceable(32) %0) #22
  br label %75

59:                                               ; preds = %39
  call void @_ZNSt7__cxx1112basic_stringIcSt11char_traitsIcESaIcEEC1Ev(ptr noundef nonnull align 8 dereferenceable(32) %0) #22
  %60 = icmp eq i32 %38, 1
  br i1 %60, label %.invoke, label %63

61:                                               ; preds = %.invoke, %74, %72, %70, %68, %63
  %62 = landingpad { ptr, i32 }
          cleanup
  call void @_ZNSt7__cxx1112basic_stringIcSt11char_traitsIcESaIcEED1Ev(ptr noundef nonnull align 8 dereferenceable(32) %0) #22
  br label %76

63:                                               ; preds = %59
  %64 = invoke noundef ptr @_Z13lua_tolstringP9lua_StateiPm(ptr noundef %33, i32 noundef -1, ptr noundef null)
          to label %65 unwind label %61

65:                                               ; preds = %63
  %.not37 = icmp eq ptr %64, null
  br i1 %.not37, label %68, label %.invoke

.invoke:                                          ; preds = %59, %65
  %66 = phi ptr [ %64, %65 ], [ @.str.58, %59 ]
  %67 = invoke noundef nonnull align 8 dereferenceable(32) ptr @_ZNSt7__cxx1112basic_stringIcSt11char_traitsIcESaIcEEaSEPKc(ptr noundef nonnull align 8 dereferenceable(32) %0, ptr noundef nonnull %66)
          to label %68 unwind label %61

68:                                               ; preds = %.invoke, %65
  %69 = invoke noundef nonnull align 8 dereferenceable(32) ptr @_ZNSt7__cxx1112basic_stringIcSt11char_traitsIcESaIcEEpLEPKc(ptr noundef nonnull align 8 dereferenceable(32) %0, ptr noundef nonnull @.str.59)
          to label %70 unwind label %61

70:                                               ; preds = %68
  %71 = invoke noundef ptr @_Z14lua_debugtraceP9lua_State(ptr noundef %33)
          to label %72 unwind label %61

72:                                               ; preds = %70
  %73 = invoke noundef nonnull align 8 dereferenceable(32) ptr @_ZNSt7__cxx1112basic_stringIcSt11char_traitsIcESaIcEEpLEPKc(ptr noundef nonnull align 8 dereferenceable(32) %0, ptr noundef %71)
          to label %74 unwind label %61

74:                                               ; preds = %72
  invoke void @_Z10lua_settopP9lua_Statei(ptr noundef %1, i32 noundef -2)
          to label %75 unwind label %61

75:                                               ; preds = %74, %25, %58
  call void @_ZNSt7__cxx1112basic_stringIcSt11char_traitsIcESaIcEED1Ev(ptr noundef nonnull align 8 dereferenceable(32) %4) #22
  ret void

76:                                               ; preds = %61, %30, %28, %26
  %.pn = phi { ptr, i32 } [ %31, %30 ], [ %29, %28 ], [ %27, %26 ], [ %62, %61 ]
  call void @_ZNSt7__cxx1112basic_stringIcSt11char_traitsIcESaIcEED1Ev(ptr noundef nonnull align 8 dereferenceable(32) %4) #22
  resume { ptr, i32 } %.pn
}